target datalayout = "e-m:e-p270:32:32-p271:32:32-p272:64:64-i64:64-i128:128-f80:128-n8:16:32:64-S128"
target triple = "x86_64-pc-linux-gnu"

@H5_init_g = external global i8, align 1
@H5_libterm_g = external global i8, align 1

; Function Attrs: nounwind uwtable
define i32 @H5_hash_string(ptr noundef %0) #0 {
  %2 = alloca ptr, align 8
  %3 = alloca i32, align 4
  %4 = alloca i32, align 4
  store ptr %0, ptr %2, align 8, !tbaa !9
  call void @llvm.lifetime.start.p0(i64 4, ptr %3) #3
  store i32 5381, ptr %3, align 4, !tbaa !11
  call void @llvm.lifetime.start.p0(i64 4, ptr %4) #3
  %5 = load i8, ptr @H5_init_g, align 1, !tbaa !13, !range !15, !noundef !16
  %6 = trunc i8 %5 to i1
  br i1 %6, label %11, label %7

7:                                                ; preds = %1
  %8 = load i8, ptr @H5_libterm_g, align 1, !tbaa !13, !range !15, !noundef !16
  %9 = trunc i8 %8 to i1
  %10 = xor i1 %9, true
  br label %11

11:                                               ; preds = %7, %1
  %12 = phi i1 [ true, %1 ], [ %10, %7 ]
  %13 = xor i1 %12, true
  %14 = xor i1 %13, true
  %15 = zext i1 %14 to i32
  %16 = sext i32 %15 to i64
  %17 = call i64 @llvm.expect.i64(i64 %16, i64 1)
  %18 = icmp ne i64 %17, 0
  br i1 %18, label %19, label %34

19:                                               ; preds = %11
  br label %20

20:                                               ; preds = %26, %19
  %21 = load ptr, ptr %2, align 8, !tbaa !9
  %22 = getelementptr inbounds nuw i8, ptr %21, i32 1
  store ptr %22, ptr %2, align 8, !tbaa !9
  %23 = load i8, ptr %21, align 1, !tbaa !17
  %24 = sext i8 %23 to i32
  store i32 %24, ptr %4, align 4, !tbaa !11
  %25 = icmp ne i32 %24, 0
  br i1 %25, label %26, label %33

26:                                               ; preds = %20
  %27 = load i32, ptr %3, align 4, !tbaa !11
  %28 = shl i32 %27, 5
  %29 = load i32, ptr %3, align 4, !tbaa !11
  %30 = add i32 %28, %29
  %31 = load i32, ptr %4, align 4, !tbaa !11
  %32 = add i32 %30, %31
  store i32 %32, ptr %3, align 4, !tbaa !11
  br label %20, !llvm.loop !23

33:                                               ; preds = %20
  br label %34

34:                                               ; preds = %33, %11
  %35 = load i32, ptr %3, align 4, !tbaa !11
  call void @llvm.lifetime.end.p0(i64 4, ptr %4) #3
  call void @llvm.lifetime.end.p0(i64 4, ptr %3) #3
  ret i32 %35
}