; Function Attrs: nofree norecurse nosync nounwind memory(read, inaccessiblemem: none) uwtable
define i32 @H5_hash_string(ptr noundef readonly captures(none) %0) local_unnamed_addr #0 {
  %2 = load i8, ptr @H5_init_g, align 1, !tbaa !3, !range !7, !noundef !8
  %3 = trunc nuw i8 %2 to i1
  %4 = load i8, ptr @H5_libterm_g, align 1, !range !7
  %5 = trunc nuw i8 %4 to i1
  %6 = xor i1 %5, true
  %7 = select i1 %3, i1 true, i1 %6
  br i1 %7, label %.preheader, label %.loopexit, !prof !9

.preheader:                                       ; preds = %1
  %8 = load i8, ptr %0, align 1, !tbaa !10
  %.not6 = icmp eq i8 %8, 0
  br i1 %.not6, label %.loopexit, label %.lr.ph

.lr.ph:                                           ; preds = %.preheader, %.lr.ph
  %9 = phi i8 [ %14, %.lr.ph ], [ %8, %.preheader ]
  %.08 = phi ptr [ %11, %.lr.ph ], [ %0, %.preheader ]
  %.17 = phi i32 [ %13, %.lr.ph ], [ 5381, %.preheader ]
  %10 = sext i8 %9 to i32
  %11 = getelementptr inbounds nuw i8, ptr %.08, i64 1
  %12 = mul i32 %.17, 33
  %13 = add i32 %12, %10
  %14 = load i8, ptr %11, align 1, !tbaa !10
  %.not = icmp eq i8 %14, 0
  br i1 %.not, label %.loopexit, label %.lr.ph, !llvm.loop !20

.loopexit:                                        ; preds = %.lr.ph, %.preheader, %1
  %.04 = phi i32 [ 5381, %1 ], [ 5381, %.preheader ], [ %13, %.lr.ph ]
  ret i32 %.04
}